target datalayout = "e-m:e-p270:32:32-p271:32:32-p272:64:64-i64:64-i128:128-f80:128-n8:16:32:64-S128"
target triple = "x86_64-pc-linux-gnu"

%struct.cli_asn1 = type { i8, i32, ptr, ptr }
%struct.cl_fmap = type { ptr, ptr, ptr, i64, i64, i64, i64, i8, i8, i8, i64, i64, i64, i64, ptr, ptr, ptr, ptr, ptr, ptr, ptr, i8, [16 x i8], i8, [20 x i8], i8, [32 x i8], ptr, ptr }
%struct._oid_alternative = type { ptr, i32, [2 x i32] }

@.str.193 = private unnamed_addr constant [69 x i8] c"asn1_expect_algo_multi: expecting SEQUENCE at the start of the algo\0A\00", align 1
@.str.194 = private unnamed_addr constant [46 x i8] c"asn1_expect_algo_multi: expected OID in algo\0A\00", align 1
@.str.195 = private unnamed_addr constant [78 x i8] c"asn1_expect_algo_multi: Unexpected length value of zero when parsing OID obj\0A\00", align 1
@.str.196 = private unnamed_addr constant [44 x i8] c"asn1_expect_algo_multi: failed to read OID\0A\00", align 1
@.str.197 = private unnamed_addr constant [62 x i8] c"asn1_expect_algo_multi: Failed to find valid OID alternative\0A\00", align 1
@.str.198 = private unnamed_addr constant [53 x i8] c"asn1_expect_algo_multi: expected NULL following OID\0A\00", align 1
@.str.199 = private unnamed_addr constant [54 x i8] c"asn1_expect_algo_multi: extra data found in SEQUENCE\0A\00", align 1
@.str.275 = private unnamed_addr constant [51 x i8] c"asn1_expect_objtype: expected type %02x, got %02x\0A\00", align 1
@.str.276 = private unnamed_addr constant [43 x i8] c"asn1_expect_obj: expected size %u, got %u\0A\00", align 1
@.str.277 = private unnamed_addr constant [41 x i8] c"asn1_expect_obj: failed to read content\0A\00", align 1
@.str.278 = private unnamed_addr constant [35 x i8] c"asn1_expect_obj: content mismatch\0A\00", align 1

; Function Attrs: inlinehint nounwind uwtable
define internal i64 @fmap_ptr2off(ptr noundef %0, ptr noundef %1) #3 {
  %3 = alloca ptr, align 8
  %4 = alloca ptr, align 8
  store ptr %0, ptr %3, align 8, !tbaa !3
  store ptr %1, ptr %4, align 8, !tbaa !62
  %5 = load ptr, ptr %4, align 8, !tbaa !62
  %6 = load ptr, ptr %3, align 8, !tbaa !3
  %7 = getelementptr inbounds nuw %struct.cl_fmap, ptr %6, i32 0, i32 2
  %8 = load ptr, ptr %7, align 8, !tbaa !106
  %9 = ptrtoint ptr %5 to i64
  %10 = ptrtoint ptr %8 to i64
  %11 = sub i64 %9, %10
  %12 = load ptr, ptr %3, align 8, !tbaa !3
  %13 = getelementptr inbounds nuw %struct.cl_fmap, ptr %12, i32 0, i32 11
  %14 = load i64, ptr %13, align 8, !tbaa !107
  %15 = sub i64 %11, %14
  ret i64 %15
}

; Function Attrs: nounwind uwtable
define internal i32 @asn1_expect_obj(ptr noundef %0, ptr noundef %1, ptr noundef %2, i8 noundef zeroext %3, i32 noundef %4, ptr noundef %5) #0 {
  %7 = alloca i32, align 4
  %8 = alloca ptr, align 8
  %9 = alloca ptr, align 8
  %10 = alloca ptr, align 8
  %11 = alloca i8, align 1
  %12 = alloca i32, align 4
  %13 = alloca ptr, align 8
  %14 = alloca %struct.cli_asn1, align 8
  %15 = alloca i32, align 4
  %16 = alloca i32, align 4
  store ptr %0, ptr %8, align 8, !tbaa !3
  store ptr %1, ptr %9, align 8, !tbaa !62
  store ptr %2, ptr %10, align 8, !tbaa !63
  store i8 %3, ptr %11, align 1, !tbaa !22
  store i32 %4, ptr %12, align 4, !tbaa !20
  store ptr %5, ptr %13, align 8, !tbaa !62
  call void @llvm.lifetime.start.p0(i64 24, ptr %14) #8
  call void @llvm.lifetime.start.p0(i64 4, ptr %15) #8
  %17 = load ptr, ptr %8, align 8, !tbaa !3
  %18 = load ptr, ptr %9, align 8, !tbaa !62
  %19 = load ptr, ptr %18, align 8, !tbaa !62
  %20 = load ptr, ptr %10, align 8, !tbaa !63
  %21 = load i8, ptr %11, align 1, !tbaa !22
  %22 = call i32 @asn1_expect_objtype(ptr noundef %17, ptr noundef %19, ptr noundef %20, ptr noundef %14, i8 noundef zeroext %21)
  store i32 %22, ptr %15, align 4, !tbaa !20
  %23 = load i32, ptr %15, align 4, !tbaa !20
  %24 = icmp ne i32 %23, 0
  br i1 %24, label %25, label %27

25:                                               ; preds = %6
  %26 = load i32, ptr %15, align 4, !tbaa !20
  store i32 %26, ptr %7, align 4
  store i32 1, ptr %16, align 4
  br label %62

27:                                               ; preds = %6
  %28 = getelementptr inbounds nuw %struct.cli_asn1, ptr %14, i32 0, i32 1
  %29 = load i32, ptr %28, align 4, !tbaa !19
  %30 = load i32, ptr %12, align 4, !tbaa !20
  %31 = icmp ne i32 %29, %30
  br i1 %31, label %32, label %36

32:                                               ; preds = %27
  %33 = load i32, ptr %12, align 4, !tbaa !20
  %34 = getelementptr inbounds nuw %struct.cli_asn1, ptr %14, i32 0, i32 1
  %35 = load i32, ptr %34, align 4, !tbaa !19
  call void (ptr, ...) @cli_dbgmsg(ptr noundef @.str.276, i32 noundef %33, i32 noundef %35)
  store i32 1, ptr %7, align 4
  store i32 1, ptr %16, align 4
  br label %62

36:                                               ; preds = %27
  %37 = load i32, ptr %12, align 4, !tbaa !20
  %38 = icmp ne i32 %37, 0
  br i1 %38, label %39, label %58

39:                                               ; preds = %36
  %40 = load ptr, ptr %8, align 8, !tbaa !3
  %41 = getelementptr inbounds nuw %struct.cli_asn1, ptr %14, i32 0, i32 2
  %42 = load ptr, ptr %41, align 8, !tbaa !21
  %43 = load i32, ptr %12, align 4, !tbaa !20
  %44 = zext i32 %43 to i64
  %45 = call ptr @fmap_need_ptr_once(ptr noundef %40, ptr noundef %42, i64 noundef %44)
  %46 = icmp ne ptr %45, null
  br i1 %46, label %48, label %47

47:                                               ; preds = %39
  call void (ptr, ...) @cli_dbgmsg(ptr noundef @.str.277)
  store i32 1, ptr %7, align 4
  store i32 1, ptr %16, align 4
  br label %62

48:                                               ; preds = %39
  %49 = getelementptr inbounds nuw %struct.cli_asn1, ptr %14, i32 0, i32 2
  %50 = load ptr, ptr %49, align 8, !tbaa !21
  %51 = load ptr, ptr %13, align 8, !tbaa !62
  %52 = load i32, ptr %12, align 4, !tbaa !20
  %53 = zext i32 %52 to i64
  %54 = call i32 @memcmp(ptr noundef %50, ptr noundef %51, i64 noundef %53) #9
  %55 = icmp ne i32 %54, 0
  br i1 %55, label %56, label %57

56:                                               ; preds = %48
  call void (ptr, ...) @cli_dbgmsg(ptr noundef @.str.278)
  store i32 1, ptr %7, align 4
  store i32 1, ptr %16, align 4
  br label %62

57:                                               ; preds = %48
  br label %58

58:                                               ; preds = %57, %36
  %59 = getelementptr inbounds nuw %struct.cli_asn1, ptr %14, i32 0, i32 3
  %60 = load ptr, ptr %59, align 8, !tbaa !16
  %61 = load ptr, ptr %9, align 8, !tbaa !62
  store ptr %60, ptr %61, align 8, !tbaa !62
  store i32 0, ptr %7, align 4
  store i32 1, ptr %16, align 4
  br label %62

62:                                               ; preds = %58, %56, %47, %32, %25
  call void @llvm.lifetime.end.p0(i64 4, ptr %15) #8
  call void @llvm.lifetime.end.p0(i64 24, ptr %14) #8
  %63 = load i32, ptr %7, align 4
  ret i32 %63
}

; Function Attrs: inlinehint nounwind uwtable
define internal ptr @fmap_need_ptr_once(ptr noundef %0, ptr noundef %1, i64 noundef %2) #3 {
  %4 = alloca ptr, align 8
  %5 = alloca ptr, align 8
  %6 = alloca i64, align 8
  store ptr %0, ptr %4, align 8, !tbaa !3
  store ptr %1, ptr %5, align 8, !tbaa !62
  store i64 %2, ptr %6, align 8, !tbaa !61
  %7 = load ptr, ptr %4, align 8, !tbaa !3
  %8 = getelementptr inbounds nuw %struct.cl_fmap, ptr %7, i32 0, i32 15
  %9 = load ptr, ptr %8, align 8, !tbaa !87
  %10 = load ptr, ptr %4, align 8, !tbaa !3
  %11 = load ptr, ptr %4, align 8, !tbaa !3
  %12 = load ptr, ptr %5, align 8, !tbaa !62
  %13 = call i64 @fmap_ptr2off(ptr noundef %11, ptr noundef %12)
  %14 = load i64, ptr %6, align 8, !tbaa !61
  %15 = call ptr %9(ptr noundef %10, i64 noundef %13, i64 noundef %14, i32 noundef 0)
  ret ptr %15
}

; Function Attrs: nounwind uwtable
define internal i32 @asn1_expect_objtype(ptr noundef %0, ptr noundef %1, ptr noundef %2, ptr noundef %3, i8 noundef zeroext %4) #0 {
  %6 = alloca i32, align 4
  %7 = alloca ptr, align 8
  %8 = alloca ptr, align 8
  %9 = alloca ptr, align 8
  %10 = alloca ptr, align 8
  %11 = alloca i8, align 1
  %12 = alloca i32, align 4
  %13 = alloca i32, align 4
  store ptr %0, ptr %7, align 8, !tbaa !3
  store ptr %1, ptr %8, align 8, !tbaa !62
  store ptr %2, ptr %9, align 8, !tbaa !63
  store ptr %3, ptr %10, align 8, !tbaa !83
  store i8 %4, ptr %11, align 1, !tbaa !22
  call void @llvm.lifetime.start.p0(i64 4, ptr %12) #8
  %14 = load ptr, ptr %7, align 8, !tbaa !3
  %15 = load ptr, ptr %8, align 8, !tbaa !62
  %16 = load ptr, ptr %9, align 8, !tbaa !63
  %17 = load ptr, ptr %10, align 8, !tbaa !83
  %18 = call i32 @asn1_get_obj(ptr noundef %14, ptr noundef %15, ptr noundef %16, ptr noundef %17)
  store i32 %18, ptr %12, align 4, !tbaa !20
  %19 = load i32, ptr %12, align 4, !tbaa !20
  %20 = icmp ne i32 %19, 0
  br i1 %20, label %21, label %23

21:                                               ; preds = %5
  %22 = load i32, ptr %12, align 4, !tbaa !20
  store i32 %22, ptr %6, align 4
  store i32 1, ptr %13, align 4
  br label %39

23:                                               ; preds = %5
  %24 = load ptr, ptr %10, align 8, !tbaa !83
  %25 = getelementptr inbounds nuw %struct.cli_asn1, ptr %24, i32 0, i32 0
  %26 = load i8, ptr %25, align 8, !tbaa !82
  %27 = zext i8 %26 to i32
  %28 = load i8, ptr %11, align 1, !tbaa !22
  %29 = zext i8 %28 to i32
  %30 = icmp ne i32 %27, %29
  br i1 %30, label %31, label %38

31:                                               ; preds = %23
  %32 = load i8, ptr %11, align 1, !tbaa !22
  %33 = zext i8 %32 to i32
  %34 = load ptr, ptr %10, align 8, !tbaa !83
  %35 = getelementptr inbounds nuw %struct.cli_asn1, ptr %34, i32 0, i32 0
  %36 = load i8, ptr %35, align 8, !tbaa !82
  %37 = zext i8 %36 to i32
  call void (ptr, ...) @cli_dbgmsg(ptr noundef @.str.275, i32 noundef %33, i32 noundef %37)
  store i32 1, ptr %6, align 4
  store i32 1, ptr %13, align 4
  br label %39

38:                                               ; preds = %23
  store i32 0, ptr %6, align 4
  store i32 1, ptr %13, align 4
  br label %39

39:                                               ; preds = %38, %31, %21
  call void @llvm.lifetime.end.p0(i64 4, ptr %12) #8
  %40 = load i32, ptr %6, align 4
  ret i32 %40
}

; Function Attrs: nounwind uwtable
define internal ptr @asn1_expect_algo_multi(ptr noundef %0, ptr noundef %1, ptr noundef %2, ptr noundef %3, i32 noundef %4) #0 {
  %6 = alloca ptr, align 8
  %7 = alloca ptr, align 8
  %8 = alloca ptr, align 8
  %9 = alloca ptr, align 8
  %10 = alloca ptr, align 8
  %11 = alloca i32, align 4
  %12 = alloca %struct.cli_asn1, align 8
  %13 = alloca i32, align 4
  %14 = alloca i32, align 4
  %15 = alloca ptr, align 8
  %16 = alloca i32, align 4
  store ptr %0, ptr %7, align 8, !tbaa !3
  store ptr %1, ptr %8, align 8, !tbaa !62
  store ptr %2, ptr %9, align 8, !tbaa !63
  store ptr %3, ptr %10, align 8, !tbaa !85
  store i32 %4, ptr %11, align 4, !tbaa !20
  call void @llvm.lifetime.start.p0(i64 24, ptr %12) #8
  call void @llvm.lifetime.start.p0(i64 4, ptr %13) #8
  call void @llvm.lifetime.start.p0(i64 4, ptr %14) #8
  call void @llvm.lifetime.start.p0(i64 8, ptr %15) #8
  store ptr null, ptr %15, align 8, !tbaa !85
  %17 = load ptr, ptr %7, align 8, !tbaa !3
  %18 = load ptr, ptr %8, align 8, !tbaa !62
  %19 = load ptr, ptr %18, align 8, !tbaa !62
  %20 = load ptr, ptr %9, align 8, !tbaa !63
  %21 = call i32 @asn1_expect_objtype(ptr noundef %17, ptr noundef %19, ptr noundef %20, ptr noundef %12, i8 noundef zeroext 48)
  %22 = icmp ne i32 %21, 0
  br i1 %22, label %23, label %24

23:                                               ; preds = %5
  call void (ptr, ...) @cli_dbgmsg(ptr noundef @.str.193)
  store ptr null, ptr %6, align 8
  store i32 1, ptr %16, align 4
  br label %103

24:                                               ; preds = %5
  %25 = getelementptr inbounds nuw %struct.cli_asn1, ptr %12, i32 0, i32 1
  %26 = load i32, ptr %25, align 4, !tbaa !19
  store i32 %26, ptr %13, align 4, !tbaa !20
  %27 = getelementptr inbounds nuw %struct.cli_asn1, ptr %12, i32 0, i32 3
  %28 = load ptr, ptr %27, align 8, !tbaa !16
  %29 = load ptr, ptr %8, align 8, !tbaa !62
  store ptr %28, ptr %29, align 8, !tbaa !62
  %30 = load ptr, ptr %7, align 8, !tbaa !3
  %31 = getelementptr inbounds nuw %struct.cli_asn1, ptr %12, i32 0, i32 2
  %32 = load ptr, ptr %31, align 8, !tbaa !21
  %33 = call i32 @asn1_expect_objtype(ptr noundef %30, ptr noundef %32, ptr noundef %13, ptr noundef %12, i8 noundef zeroext 6)
  %34 = icmp ne i32 %33, 0
  br i1 %34, label %35, label %36

35:                                               ; preds = %24
  call void (ptr, ...) @cli_dbgmsg(ptr noundef @.str.194)
  store ptr null, ptr %6, align 8
  store i32 1, ptr %16, align 4
  br label %103

36:                                               ; preds = %24
  %37 = getelementptr inbounds nuw %struct.cli_asn1, ptr %12, i32 0, i32 1
  %38 = load i32, ptr %37, align 4, !tbaa !19
  %39 = icmp eq i32 0, %38
  br i1 %39, label %40, label %41

40:                                               ; preds = %36
  call void (ptr, ...) @cli_dbgmsg(ptr noundef @.str.195)
  store ptr null, ptr %6, align 8
  store i32 1, ptr %16, align 4
  br label %103

41:                                               ; preds = %36
  %42 = load ptr, ptr %7, align 8, !tbaa !3
  %43 = getelementptr inbounds nuw %struct.cli_asn1, ptr %12, i32 0, i32 2
  %44 = load ptr, ptr %43, align 8, !tbaa !21
  %45 = getelementptr inbounds nuw %struct.cli_asn1, ptr %12, i32 0, i32 1
  %46 = load i32, ptr %45, align 4, !tbaa !19
  %47 = zext i32 %46 to i64
  %48 = call ptr @fmap_need_ptr_once(ptr noundef %42, ptr noundef %44, i64 noundef %47)
  %49 = icmp ne ptr %48, null
  br i1 %49, label %51, label %50

50:                                               ; preds = %41
  call void (ptr, ...) @cli_dbgmsg(ptr noundef @.str.196)
  store ptr null, ptr %6, align 8
  store i32 1, ptr %16, align 4
  br label %103

51:                                               ; preds = %41
  store i32 0, ptr %14, align 4, !tbaa !20
  br label %52

52:                                               ; preds = %81, %51
  %53 = load i32, ptr %14, align 4, !tbaa !20
  %54 = load i32, ptr %11, align 4, !tbaa !20
  %55 = icmp ult i32 %53, %54
  br i1 %55, label %56, label %84

56:                                               ; preds = %52
  %57 = load ptr, ptr %10, align 8, !tbaa !85
  %58 = load i32, ptr %14, align 4, !tbaa !20
  %59 = zext i32 %58 to i64
  %60 = getelementptr inbounds nuw %struct._oid_alternative, ptr %57, i64 %59
  store ptr %60, ptr %15, align 8, !tbaa !85
  %61 = getelementptr inbounds nuw %struct.cli_asn1, ptr %12, i32 0, i32 1
  %62 = load i32, ptr %61, align 4, !tbaa !19
  %63 = load ptr, ptr %15, align 8, !tbaa !85
  %64 = getelementptr inbounds nuw %struct._oid_alternative, ptr %63, i32 0, i32 1
  %65 = load i32, ptr %64, align 8, !tbaa !103
  %66 = icmp ne i32 %62, %65
  br i1 %66, label %67, label %68

67:                                               ; preds = %56
  br label %81

68:                                               ; preds = %56
  %69 = getelementptr inbounds nuw %struct.cli_asn1, ptr %12, i32 0, i32 2
  %70 = load ptr, ptr %69, align 8, !tbaa !21
  %71 = load ptr, ptr %15, align 8, !tbaa !85
  %72 = getelementptr inbounds nuw %struct._oid_alternative, ptr %71, i32 0, i32 0
  %73 = load ptr, ptr %72, align 8, !tbaa !105
  %74 = getelementptr inbounds nuw %struct.cli_asn1, ptr %12, i32 0, i32 1
  %75 = load i32, ptr %74, align 4, !tbaa !19
  %76 = zext i32 %75 to i64
  %77 = call i32 @memcmp(ptr noundef %70, ptr noundef %73, i64 noundef %76) #9
  %78 = icmp ne i32 %77, 0
  br i1 %78, label %80, label %79

79:                                               ; preds = %68
  br label %84

80:                                               ; preds = %68
  br label %81

81:                                               ; preds = %80, %67
  %82 = load i32, ptr %14, align 4, !tbaa !20
  %83 = add i32 %82, 1
  store i32 %83, ptr %14, align 4, !tbaa !20
  br label %52

84:                                               ; preds = %79, %52
  %85 = load ptr, ptr %15, align 8, !tbaa !85
  %86 = icmp eq ptr null, %85
  br i1 %86, label %87, label %88

87:                                               ; preds = %84
  call void (ptr, ...) @cli_dbgmsg(ptr noundef @.str.197)
  store ptr null, ptr %6, align 8
  store i32 1, ptr %16, align 4
  br label %103

88:                                               ; preds = %84
  %89 = load i32, ptr %13, align 4, !tbaa !20
  %90 = icmp ne i32 %89, 0
  br i1 %90, label %91, label %97

91:                                               ; preds = %88
  %92 = load ptr, ptr %7, align 8, !tbaa !3
  %93 = getelementptr inbounds nuw %struct.cli_asn1, ptr %12, i32 0, i32 3
  %94 = call i32 @asn1_expect_obj(ptr noundef %92, ptr noundef %93, ptr noundef %13, i8 noundef zeroext 5, i32 noundef 0, ptr noundef null)
  %95 = icmp ne i32 %94, 0
  br i1 %95, label %96, label %97

96:                                               ; preds = %91
  call void (ptr, ...) @cli_dbgmsg(ptr noundef @.str.198)
  store ptr null, ptr %6, align 8
  store i32 1, ptr %16, align 4
  br label %103

97:                                               ; preds = %91, %88
  %98 = load i32, ptr %13, align 4, !tbaa !20
  %99 = icmp ne i32 %98, 0
  br i1 %99, label %100, label %101

100:                                              ; preds = %97
  call void (ptr, ...) @cli_dbgmsg(ptr noundef @.str.199)
  store ptr null, ptr %6, align 8
  store i32 1, ptr %16, align 4
  br label %103

101:                                              ; preds = %97
  %102 = load ptr, ptr %15, align 8, !tbaa !85
  store ptr %102, ptr %6, align 8
  store i32 1, ptr %16, align 4
  br label %103

103:                                              ; preds = %101, %100, %96, %87, %50, %40, %35, %23
  call void @llvm.lifetime.end.p0(i64 8, ptr %15) #8
  call void @llvm.lifetime.end.p0(i64 4, ptr %14) #8
  call void @llvm.lifetime.end.p0(i64 4, ptr %13) #8
  call void @llvm.lifetime.end.p0(i64 24, ptr %12) #8
  %104 = load ptr, ptr %6, align 8
  ret ptr %104
}