; Function Attrs: nounwind uwtable
define internal fastcc ptr @asn1_expect_algo_multi(ptr noundef %0, ptr noundef nonnull captures(none) %1, ptr noundef nonnull captures(none) %2, ptr noundef readonly %3, i32 noundef range(i32 2, 11) %4) unnamed_addr #0 {
  %6 = alloca %struct.cli_asn1, align 8
  %7 = alloca %struct.cli_asn1, align 8
  %8 = alloca i32, align 4
  call void @llvm.lifetime.start.p0(i64 24, ptr nonnull %7) #11
  call void @llvm.lifetime.start.p0(i64 4, ptr nonnull %8) #11
  %9 = load ptr, ptr %1, align 8, !tbaa !61
  %10 = call fastcc i32 @asn1_get_obj(ptr noundef %0, ptr noundef %9, ptr noundef nonnull %2, ptr noundef nonnull %7)
  %.not.i = icmp eq i32 %10, 0
  br i1 %.not.i, label %11, label %.thread40.sink.split

11:                                               ; preds = %5
  %12 = load i8, ptr %7, align 8, !tbaa !15
  %.not13.i = icmp eq i8 %12, 48
  br i1 %.not13.i, label %asn1_expect_objtype.exit, label %13

13:                                               ; preds = %11
  %14 = zext i8 %12 to i32
  tail call void (ptr, ...) @cli_dbgmsg(ptr noundef nonnull @.str.275, i32 noundef 48, i32 noundef %14) #11
  br label %.thread40.sink.split

asn1_expect_objtype.exit:                         ; preds = %11
  %15 = getelementptr inbounds nuw i8, ptr %7, i64 4
  %16 = load i32, ptr %15, align 4, !tbaa !16
  store i32 %16, ptr %8, align 4, !tbaa !17
  %17 = getelementptr inbounds nuw i8, ptr %7, i64 16
  %18 = load ptr, ptr %17, align 8, !tbaa !12
  store ptr %18, ptr %1, align 8, !tbaa !61
  %19 = getelementptr inbounds nuw i8, ptr %7, i64 8
  %20 = load ptr, ptr %19, align 8, !tbaa !18
  %21 = call fastcc i32 @asn1_get_obj(ptr noundef %0, ptr noundef %20, ptr noundef nonnull %8, ptr noundef nonnull %7)
  %.not.i27 = icmp eq i32 %21, 0
  br i1 %.not.i27, label %22, label %.thread40.sink.split

22:                                               ; preds = %asn1_expect_objtype.exit
  %23 = load i8, ptr %7, align 8, !tbaa !15
  %.not13.i29 = icmp eq i8 %23, 6
  br i1 %.not13.i29, label %asn1_expect_objtype.exit30, label %24

24:                                               ; preds = %22
  %25 = zext i8 %23 to i32
  tail call void (ptr, ...) @cli_dbgmsg(ptr noundef nonnull @.str.275, i32 noundef 6, i32 noundef %25) #11
  br label %.thread40.sink.split

asn1_expect_objtype.exit30:                       ; preds = %22
  %26 = load i32, ptr %15, align 4, !tbaa !16
  %27 = icmp eq i32 %26, 0
  br i1 %27, label %.thread40.sink.split, label %28

28:                                               ; preds = %asn1_expect_objtype.exit30
  %29 = load ptr, ptr %19, align 8, !tbaa !18
  %30 = zext i32 %26 to i64
  %31 = getelementptr inbounds nuw i8, ptr %0, i64 104
  %32 = load ptr, ptr %31, align 8, !tbaa !19
  %33 = getelementptr i8, ptr %0, i64 16
  %.val.i = load ptr, ptr %33, align 8, !tbaa !20
  %34 = getelementptr i8, ptr %0, i64 72
  %.val4.i = load i64, ptr %34, align 8, !tbaa !21
  %35 = ptrtoint ptr %29 to i64
  %36 = ptrtoint ptr %.val.i to i64
  %37 = add i64 %.val4.i, %36
  %38 = sub i64 %35, %37
  %39 = tail call ptr %32(ptr noundef %0, i64 noundef %38, i64 noundef range(i64 0, 4294967296) %30, i32 noundef 0) #11
  %.not21 = icmp eq ptr %39, null
  br i1 %.not21, label %.thread40.sink.split, label %.preheader.preheader

.preheader.preheader:                             ; preds = %28
  %40 = add nsw i32 %4, -1
  %41 = zext nneg i32 %40 to i64
  %42 = mul nuw nsw i64 %41, 24
  %scevgep = getelementptr i8, ptr %3, i64 %42
  %wide.trip.count = zext nneg i32 %4 to i64
  br label %.preheader

.preheader:                                       ; preds = %.preheader.preheader, %48
  %indvars.iv = phi i64 [ 0, %.preheader.preheader ], [ %indvars.iv.next, %48 ]
  %43 = getelementptr inbounds nuw %struct._oid_alternative, ptr %3, i64 %indvars.iv
  %44 = getelementptr inbounds nuw i8, ptr %43, i64 8
  %45 = load i32, ptr %44, align 8, !tbaa !89
  %.not22 = icmp eq i32 %26, %45
  br i1 %.not22, label %46, label %48

46:                                               ; preds = %.preheader
  %47 = load ptr, ptr %43, align 8, !tbaa !91
  %bcmp = tail call i32 @bcmp(ptr %29, ptr %47, i64 %30)
  %.not23 = icmp eq i32 %bcmp, 0
  br i1 %.not23, label %.thread, label %48

48:                                               ; preds = %46, %.preheader
  %indvars.iv.next = add nuw nsw i64 %indvars.iv, 1
  %exitcond.not = icmp eq i64 %indvars.iv.next, %wide.trip.count
  br i1 %exitcond.not, label %.thread, label %.preheader

.thread:                                          ; preds = %46, %48
  %49 = phi ptr [ %scevgep, %48 ], [ %43, %46 ]
  %50 = load i32, ptr %8, align 4, !tbaa !17
  %.not24 = icmp eq i32 %50, 0
  br i1 %.not24, label %.thread40, label %51

51:                                               ; preds = %.thread
  call void @llvm.lifetime.start.p0(i64 24, ptr nonnull %6) #11
  %52 = load ptr, ptr %17, align 8, !tbaa !61
  %53 = call fastcc i32 @asn1_get_obj(ptr noundef %0, ptr noundef %52, ptr noundef nonnull %8, ptr noundef nonnull %6)
  %.not.i.i = icmp eq i32 %53, 0
  br i1 %.not.i.i, label %54, label %61

54:                                               ; preds = %51
  %55 = load i8, ptr %6, align 8, !tbaa !15
  %.not13.i.i = icmp eq i8 %55, 5
  br i1 %.not13.i.i, label %asn1_expect_objtype.exit.i, label %56

56:                                               ; preds = %54
  %57 = zext i8 %55 to i32
  tail call void (ptr, ...) @cli_dbgmsg(ptr noundef nonnull @.str.275, i32 noundef 5, i32 noundef %57) #11
  br label %61

asn1_expect_objtype.exit.i:                       ; preds = %54
  %58 = getelementptr inbounds nuw i8, ptr %6, i64 4
  %59 = load i32, ptr %58, align 4, !tbaa !16
  %.not17.i = icmp eq i32 %59, 0
  br i1 %.not17.i, label %62, label %60

60:                                               ; preds = %asn1_expect_objtype.exit.i
  tail call void (ptr, ...) @cli_dbgmsg(ptr noundef nonnull @.str.276, i32 noundef 0, i32 noundef %59) #11
  br label %61

61:                                               ; preds = %60, %56, %51
  call void @llvm.lifetime.end.p0(i64 24, ptr nonnull %6) #11
  br label %.thread40.sink.split

62:                                               ; preds = %asn1_expect_objtype.exit.i
  call void @llvm.lifetime.end.p0(i64 24, ptr nonnull %6) #11
  %.pr = load i32, ptr %8, align 4, !tbaa !17
  %.not26 = icmp eq i32 %.pr, 0
  br i1 %.not26, label %.thread40, label %.thread40.sink.split

.thread40.sink.split:                             ; preds = %62, %28, %asn1_expect_objtype.exit30, %asn1_expect_objtype.exit, %24, %5, %13, %61
  %.str.199.sink = phi ptr [ @.str.198, %61 ], [ @.str.193, %13 ], [ @.str.193, %5 ], [ @.str.194, %24 ], [ @.str.194, %asn1_expect_objtype.exit ], [ @.str.195, %asn1_expect_objtype.exit30 ], [ @.str.196, %28 ], [ @.str.199, %62 ]
  tail call void (ptr, ...) @cli_dbgmsg(ptr noundef nonnull %.str.199.sink) #11
  br label %.thread40

.thread40:                                        ; preds = %.thread40.sink.split, %.thread, %62
  %.017 = phi ptr [ %49, %62 ], [ %49, %.thread ], [ null, %.thread40.sink.split ]
  call void @llvm.lifetime.end.p0(i64 4, ptr nonnull %8) #11
  call void @llvm.lifetime.end.p0(i64 24, ptr nonnull %7) #11
  ret ptr %.017
}